; Function Attrs: mustprogress nofree norecurse nosync nounwind willreturn memory(none) uwtable
define hidden zeroext range(i8 1, 74) i8 @_mi_bin(i64 noundef %0) local_unnamed_addr #0 {
  %2 = add i64 %0, 7
  %3 = lshr i64 %2, 3
  %4 = icmp ult i64 %2, 16
  br i1 %4, label %mi_bin.exit, label %5

5:                                                ; preds = %1
  %6 = icmp ult i64 %2, 72
  br i1 %6, label %7, label %11

7:                                                ; preds = %5
  %8 = trunc nuw i64 %3 to i8
  %9 = add nuw nsw i8 %8, 1
  %10 = and i8 %9, 30
  br label %mi_bin.exit

11:                                               ; preds = %5
  %12 = icmp ugt i64 %2, 131079
  br i1 %12, label %mi_bin.exit, label %13

13:                                               ; preds = %11
  %14 = add nsw i64 %3, -1
  %15 = tail call range(i64 50, 61) i64 @llvm.ctlz.i64(i64 range(i64 8, 16384) %14, i1 true)
  %16 = trunc nuw nsw i64 %15 to i8
  %17 = xor i8 %16, -1
  %18 = shl i8 %17, 2
  %19 = sub nuw nsw i64 61, %15
  %20 = lshr i64 %14, %19
  %21 = trunc i64 %20 to i8
  %22 = and i8 %21, 3
  %23 = add nsw i8 %18, -3
  %24 = add nuw nsw i8 %23, %22
  br label %mi_bin.exit

mi_bin.exit:                                      ; preds = %1, %7, %11, %13
  %.0.i = phi i8 [ %10, %7 ], [ %24, %13 ], [ 1, %1 ], [ 73, %11 ]
  ret i8 %.0.i
}